
Allocating common symbols
Common symbol       size              file

STK_TIME            0x4               ./build/startup.o

Discarded input sections

 .data          0x0000000000000000        0x0 ./build/main.o
 .bss           0x0000000000000000        0x0 ./build/main.o
 .data          0x0000000000000000        0x0 ./build/clock.o
 .bss           0x0000000000000000        0x0 ./build/clock.o
 .data          0x0000000000000000        0x4 ./build/startup.o
 .data          0x0000000000000000        0x0 ./build/led.o
 .bss           0x0000000000000000        0x0 ./build/led.o

Memory Configuration

Name             Origin             Length             Attributes
FLASH            0x0000000008000000 0x0000000000020000 xr
RAM              0x0000000020000000 0x0000000000005000 xrw
*default*        0x0000000000000000 0xffffffffffffffff

Linker script and memory map

LOAD ./build/main.o
LOAD ./build/clock.o
LOAD ./build/startup.o
LOAD ./build/led.o

.text           0x0000000008000000      0x4c8
                0x0000000008000000                _start_text = .
 *(.isr_vector)
 .isr_vector    0x0000000008000000      0x100 ./build/startup.o
                0x0000000008000000                IV
 *(.text*)
 .text          0x0000000008000100       0x20 ./build/main.o
                0x0000000008000100                main
 .text          0x0000000008000120      0x1e4 ./build/clock.o
                0x0000000008000120                rcc_init
                0x00000000080002a4                systick_init
                0x00000000080002dc                msDelay
 .text          0x0000000008000304       0xd0 ./build/startup.o
                0x0000000008000304                isr_reset
                0x000000000800038c                isr_fault
                0x0000000008000392                isr_memfault
                0x0000000008000398                isr_busfault
                0x000000000800039e                isr_usagefault
                0x00000000080003a4                isr_empty
                0x00000000080003b0                isr_systick
 .text          0x00000000080003d4       0xf4 ./build/led.o
                0x00000000080003d4                ledInit
                0x0000000008000410                ledOn
                0x0000000008000444                ledOff
                0x0000000008000478                ledToggle
 *(.rodata*)
                0x00000000080004c8                . = ALIGN (0x4)
                0x00000000080004c8                _end_text = .
                0x00000000080004c8                _stored_data = .

.glue_7         0x00000000080004c8        0x0
 .glue_7        0x00000000080004c8        0x0 linker stubs

.glue_7t        0x00000000080004c8        0x0
 .glue_7t       0x00000000080004c8        0x0 linker stubs

.vfp11_veneer   0x00000000080004c8        0x0
 .vfp11_veneer  0x00000000080004c8        0x0 linker stubs

.v4_bx          0x00000000080004c8        0x0
 .v4_bx         0x00000000080004c8        0x0 linker stubs

.iplt           0x00000000080004c8        0x0
 .iplt          0x00000000080004c8        0x0 ./build/main.o

.rel.dyn        0x00000000080004c8        0x0
 .rel.iplt      0x00000000080004c8        0x0 ./build/main.o

.data           0x0000000020000000        0x0 load address 0x00000000080004c8
                0x0000000020000000                _start_data = .
 *(.data*)
                0x0000000020000000                . = ALIGN (0x4)
                0x0000000020000000                _end_data = .

.igot.plt       0x0000000020000000        0x0
 .igot.plt      0x0000000020000000        0x0 ./build/main.o

.bss            0x0000000020000000       0x10
                0x0000000020000000                _start_bss = .
 *(.bss*)
 .bss           0x0000000020000000        0xc ./build/startup.o
 *(COMMON)
 COMMON         0x000000002000000c        0x4 ./build/startup.o
                0x000000002000000c                STK_TIME
                0x0000000020000010                . = ALIGN (0x4)
                0x0000000020000010                _end_bss = .
                0x0000000020000010                _end = .
                0x0000000020000010                PROVIDE (_start_heap = _end)
                0x0000000020005000                PROVIDE (_end_stack = (ORIGIN (RAM) + LENGTH (RAM)))
OUTPUT(build/image.elf elf32-littlearm)
LOAD linker stubs

.debug_info     0x0000000000000000      0x71b
 .debug_info    0x0000000000000000       0x82 ./build/main.o
 .debug_info    0x0000000000000082      0x246 ./build/clock.o
 .debug_info    0x00000000000002c8      0x206 ./build/startup.o
 .debug_info    0x00000000000004ce      0x24d ./build/led.o

.debug_abbrev   0x0000000000000000      0x334
 .debug_abbrev  0x0000000000000000       0x44 ./build/main.o
 .debug_abbrev  0x0000000000000044       0xef ./build/clock.o
 .debug_abbrev  0x0000000000000133      0x112 ./build/startup.o
 .debug_abbrev  0x0000000000000245       0xef ./build/led.o

.debug_aranges  0x0000000000000000       0x80
 .debug_aranges
                0x0000000000000000       0x20 ./build/main.o
 .debug_aranges
                0x0000000000000020       0x20 ./build/clock.o
 .debug_aranges
                0x0000000000000040       0x20 ./build/startup.o
 .debug_aranges
                0x0000000000000060       0x20 ./build/led.o

.debug_line     0x0000000000000000      0x3de
 .debug_line    0x0000000000000000       0x4e ./build/main.o
 .debug_line    0x000000000000004e      0x1dc ./build/clock.o
 .debug_line    0x000000000000022a       0xed ./build/startup.o
 .debug_line    0x0000000000000317       0xc7 ./build/led.o

.debug_str      0x0000000000000000      0x307
 .debug_str     0x0000000000000000      0x124 ./build/main.o
                                        0x158 (size before relaxing)
 .debug_str     0x0000000000000124       0xb4 ./build/clock.o
                                        0x205 (size before relaxing)
 .debug_str     0x00000000000001d8       0xe9 ./build/startup.o
                                        0x247 (size before relaxing)
 .debug_str     0x00000000000002c1       0x46 ./build/led.o
                                        0x1dd (size before relaxing)

.comment        0x0000000000000000       0x59
 .comment       0x0000000000000000       0x59 ./build/main.o
                                         0x5a (size before relaxing)
 .comment       0x0000000000000059       0x5a ./build/clock.o
 .comment       0x0000000000000059       0x5a ./build/startup.o
 .comment       0x0000000000000059       0x5a ./build/led.o

.ARM.attributes
                0x0000000000000000       0x2d
 .ARM.attributes
                0x0000000000000000       0x2d ./build/main.o
 .ARM.attributes
                0x000000000000002d       0x2d ./build/clock.o
 .ARM.attributes
                0x000000000000005a       0x2d ./build/startup.o
 .ARM.attributes
                0x0000000000000087       0x2d ./build/led.o

.debug_frame    0x0000000000000000      0x228
 .debug_frame   0x0000000000000000       0x2c ./build/main.o
 .debug_frame   0x000000000000002c       0x80 ./build/clock.o
 .debug_frame   0x00000000000000ac       0xd0 ./build/startup.o
 .debug_frame   0x000000000000017c       0xac ./build/led.o
